target datalayout = "e-m:e-p270:32:32-p271:32:32-p272:64:64-i64:64-i128:128-f80:128-n8:16:32:64-S128"
target triple = "x86_64-pc-linux-gnu"

%struct.AVClass = type { ptr, ptr, ptr, i32, i32, i32, i32, ptr, ptr, ptr, ptr, i32 }
%struct.__va_list_tag = type { i32, i32, ptr, ptr }

@av_log_callback = internal global ptr @av_log_default_callback, align 8

; Function Attrs: nounwind uwtable
define void @av_vlog(ptr noundef %0, i32 noundef %1, ptr noundef %2, ptr noundef %3) #0 {
  %5 = alloca ptr, align 8
  %6 = alloca i32, align 4
  %7 = alloca ptr, align 8
  %8 = alloca ptr, align 8
  %9 = alloca ptr, align 8
  %10 = alloca ptr, align 8
  store ptr %0, ptr %5, align 8, !tbaa !4
  store i32 %1, ptr %6, align 4, !tbaa !16
  store ptr %2, ptr %7, align 8, !tbaa !17
  store ptr %3, ptr %8, align 8, !tbaa !18
  call void @llvm.lifetime.start.p0(i64 8, ptr %9) #7
  %11 = load ptr, ptr %5, align 8, !tbaa !4
  %12 = icmp ne ptr %11, null
  br i1 %12, label %13, label %16

13:                                               ; preds = %4
  %14 = load ptr, ptr %5, align 8, !tbaa !4
  %15 = load ptr, ptr %14, align 8, !tbaa !8
  br label %17

16:                                               ; preds = %4
  br label %17

17:                                               ; preds = %16, %13
  %18 = phi ptr [ %15, %13 ], [ null, %16 ]
  store ptr %18, ptr %9, align 8, !tbaa !8
  call void @llvm.lifetime.start.p0(i64 8, ptr %10) #7
  %19 = load ptr, ptr @av_log_callback, align 8, !tbaa !4
  store ptr %19, ptr %10, align 8, !tbaa !4
  %20 = load ptr, ptr %9, align 8, !tbaa !8
  %21 = icmp ne ptr %20, null
  br i1 %21, label %22, label %45

22:                                               ; preds = %17
  %23 = load ptr, ptr %9, align 8, !tbaa !8
  %24 = getelementptr inbounds nuw %struct.AVClass, ptr %23, i32 0, i32 3
  %25 = load i32, ptr %24, align 8, !tbaa !37
  %26 = icmp sge i32 %25, 3280642
  br i1 %26, label %27, label %45

27:                                               ; preds = %22
  %28 = load ptr, ptr %9, align 8, !tbaa !8
  %29 = getelementptr inbounds nuw %struct.AVClass, ptr %28, i32 0, i32 4
  %30 = load i32, ptr %29, align 4, !tbaa !38
  %31 = icmp ne i32 %30, 0
  br i1 %31, label %32, label %45

32:                                               ; preds = %27
  %33 = load i32, ptr %6, align 4, !tbaa !16
  %34 = icmp sge i32 %33, 8
  br i1 %34, label %35, label %45

35:                                               ; preds = %32
  %36 = load ptr, ptr %5, align 8, !tbaa !4
  %37 = load ptr, ptr %9, align 8, !tbaa !8
  %38 = getelementptr inbounds nuw %struct.AVClass, ptr %37, i32 0, i32 4
  %39 = load i32, ptr %38, align 4, !tbaa !38
  %40 = sext i32 %39 to i64
  %41 = getelementptr inbounds i8, ptr %36, i64 %40
  %42 = load i32, ptr %41, align 4, !tbaa !16
  %43 = load i32, ptr %6, align 4, !tbaa !16
  %44 = add nsw i32 %43, %42
  store i32 %44, ptr %6, align 4, !tbaa !16
  br label %45

45:                                               ; preds = %35, %32, %27, %22, %17
  %46 = load ptr, ptr %10, align 8, !tbaa !4
  %47 = icmp ne ptr %46, null
  br i1 %47, label %48, label %54

48:                                               ; preds = %45
  %49 = load ptr, ptr %10, align 8, !tbaa !4
  %50 = load ptr, ptr %5, align 8, !tbaa !4
  %51 = load i32, ptr %6, align 4, !tbaa !16
  %52 = load ptr, ptr %7, align 8, !tbaa !17
  %53 = load ptr, ptr %8, align 8, !tbaa !18
  call void %49(ptr noundef %50, i32 noundef %51, ptr noundef %52, ptr noundef %53)
  br label %54

54:                                               ; preds = %48, %45
  call void @llvm.lifetime.end.p0(i64 8, ptr %10) #7
  call void @llvm.lifetime.end.p0(i64 8, ptr %9) #7
  ret void
}

; Function Attrs: nounwind uwtable
define void @av_log(ptr noundef %0, i32 noundef %1, ptr noundef %2, ...) #0 {
  %4 = alloca ptr, align 8
  %5 = alloca i32, align 4
  %6 = alloca ptr, align 8
  %7 = alloca [1 x %struct.__va_list_tag], align 16
  store ptr %0, ptr %4, align 8, !tbaa !4
  store i32 %1, ptr %5, align 4, !tbaa !16
  store ptr %2, ptr %6, align 8, !tbaa !17
  call void @llvm.lifetime.start.p0(i64 24, ptr %7) #7
  %8 = getelementptr inbounds [1 x %struct.__va_list_tag], ptr %7, i64 0, i64 0
  call void @llvm.va_start.p0(ptr %8)
  %9 = load ptr, ptr %4, align 8, !tbaa !4
  %10 = load i32, ptr %5, align 4, !tbaa !16
  %11 = load ptr, ptr %6, align 8, !tbaa !17
  %12 = getelementptr inbounds [1 x %struct.__va_list_tag], ptr %7, i64 0, i64 0
  call void @av_vlog(ptr noundef %9, i32 noundef %10, ptr noundef %11, ptr noundef %12)
  %13 = getelementptr inbounds [1 x %struct.__va_list_tag], ptr %7, i64 0, i64 0
  call void @llvm.va_end.p0(ptr %13)
  call void @llvm.lifetime.end.p0(i64 24, ptr %7) #7
  ret void
}